target datalayout = "e-m:e-p270:32:32-p271:32:32-p272:64:64-i64:64-i128:128-f80:128-n8:16:32:64-S128"
target triple = "x86_64-pc-linux-gnu"

%"struct.dpx::GenericHeader" = type { i32, i32, [8 x i8], i32, i32, i32, i32, i32, [100 x i8], [24 x i8], [100 x i8], [200 x i8], [200 x i8], i32, [104 x i8], i16, i16, i32, i32, [8 x %"struct.dpx::ImageElement"], [52 x i8], i32, i32, float, float, i32, i32, [100 x i8], [24 x i8], [32 x i8], [32 x i8], [4 x i16], [2 x i32], float, float, [20 x i8] }
%"struct.dpx::ImageElement" = type { i32, i32, float, i32, float, i8, i8, i8, i8, i16, i16, i32, i32, i32, [32 x i8] }

; Function Attrs: inlinehint mustprogress nounwind uwtable
define linkonce_odr hidden noundef i32 @_ZNK3dpx13GenericHeader13PixelsPerLineEv(ptr noundef nonnull align 4 dereferenceable(1664) %0) #0 comdat align 2 {
  %2 = alloca ptr, align 8
  store ptr %0, ptr %2, align 8, !tbaa !19
  %3 = load ptr, ptr %2, align 8
  %4 = getelementptr inbounds nuw %"struct.dpx::GenericHeader", ptr %3, i32 0, i32 17
  %5 = load i32, ptr %4, align 4, !tbaa !34
  ret i32 %5
}

; Function Attrs: inlinehint mustprogress nounwind uwtable
define linkonce_odr hidden noundef i32 @_ZNK3dpx13GenericHeader15LinesPerElementEv(ptr noundef nonnull align 4 dereferenceable(1664) %0) #0 comdat align 2 {
  %2 = alloca ptr, align 8
  store ptr %0, ptr %2, align 8, !tbaa !19
  %3 = load ptr, ptr %2, align 8
  %4 = getelementptr inbounds nuw %"struct.dpx::GenericHeader", ptr %3, i32 0, i32 18
  %5 = load i32, ptr %4, align 4, !tbaa !33
  ret i32 %5
}

; Function Attrs: inlinehint mustprogress nounwind uwtable
define linkonce_odr hidden noundef i32 @_ZNK3dpx13GenericHeader16ImageOrientationEv(ptr noundef nonnull align 4 dereferenceable(1664) %0) #0 comdat align 2 {
  %2 = alloca ptr, align 8
  store ptr %0, ptr %2, align 8, !tbaa !19
  %3 = load ptr, ptr %2, align 8
  %4 = getelementptr inbounds nuw %"struct.dpx::GenericHeader", ptr %3, i32 0, i32 15
  %5 = load i16, ptr %4, align 4, !tbaa !31
  %6 = zext i16 %5 to i32
  ret i32 %6
}

; Function Attrs: mustprogress uwtable
define hidden noundef i32 @_ZNK3dpx6Header5WidthEv(ptr noundef nonnull align 4 dereferenceable(2049) %0) #7 align 2 {
  %2 = alloca ptr, align 8
  %3 = alloca i32, align 4
  store ptr %0, ptr %2, align 8, !tbaa !9
  %4 = load ptr, ptr %2, align 8
  call void @llvm.lifetime.start.p0(i64 4, ptr %3) #5
  %5 = call noundef i32 @_ZNK3dpx13GenericHeader16ImageOrientationEv(ptr noundef nonnull align 4 dereferenceable(1664) %4)
  switch i32 %5, label %8 [
    i32 4, label %6
    i32 5, label %6
    i32 6, label %6
    i32 7, label %6
  ]

6:                                                ; preds = %1, %1, %1, %1
  %7 = call noundef i32 @_ZNK3dpx13GenericHeader15LinesPerElementEv(ptr noundef nonnull align 4 dereferenceable(1664) %4)
  store i32 %7, ptr %3, align 4, !tbaa !42
  br label %10

8:                                                ; preds = %1
  %9 = call noundef i32 @_ZNK3dpx13GenericHeader13PixelsPerLineEv(ptr noundef nonnull align 4 dereferenceable(1664) %4)
  store i32 %9, ptr %3, align 4, !tbaa !42
  br label %10

10:                                               ; preds = %8, %6
  %11 = load i32, ptr %3, align 4, !tbaa !42
  call void @llvm.lifetime.end.p0(i64 4, ptr %3) #5
  ret i32 %11
}