; Function Attrs: mustprogress nofree norecurse nosync nounwind willreturn memory(argmem: read) uwtable
define hidden noundef i32 @_ZNK3dpx6Header5WidthEv(ptr noundef nonnull readonly align 4 captures(none) dereferenceable(2049) %0) local_unnamed_addr #11 align 2 {
  %2 = getelementptr inbounds nuw i8, ptr %0, i64 768
  %3 = load i16, ptr %2, align 4, !tbaa !91
  %4 = and i16 %3, -4
  %switch = icmp eq i16 %4, 4
  %5 = getelementptr inbounds nuw i8, ptr %0, i64 772
  %6 = load i32, ptr %5, align 4
  %7 = getelementptr inbounds nuw i8, ptr %0, i64 776
  %8 = load i32, ptr %7, align 4
  %.0 = select i1 %switch, i32 %8, i32 %6
  ret i32 %.0
}